; Function Attrs: nounwind uwtable
define range(i32 -22, 1) i32 @CVodeSetLSetupFrequency(ptr noundef %0, i64 noundef %1) local_unnamed_addr #0 {
  %3 = icmp eq ptr %0, null
  br i1 %3, label %4, label %5

4:                                                ; preds = %2
  tail call void (ptr, i32, i32, ptr, ptr, ptr, ...) @cvProcessError(ptr noundef null, i32 noundef -21, i32 noundef 846, ptr noundef nonnull @__func__.CVodeSetLSetupFrequency, ptr noundef nonnull @.str, ptr noundef nonnull @.str.1) #7
  br label %12

5:                                                ; preds = %2
  %6 = icmp slt i64 %1, 0
  br i1 %6, label %7, label %8

7:                                                ; preds = %5
  tail call void (ptr, i32, i32, ptr, ptr, ptr, ...) @cvProcessError(ptr noundef nonnull %0, i32 noundef -22, i32 noundef 855, ptr noundef nonnull @__func__.CVodeSetLSetupFrequency, ptr noundef nonnull @.str, ptr noundef nonnull @.str.12) #7
  br label %12

8:                                                ; preds = %5
  %9 = icmp eq i64 %1, 0
  %10 = select i1 %9, i64 20, i64 %1
  %11 = getelementptr inbounds nuw i8, ptr %0, i64 1048
  store i64 %10, ptr %11, align 8
  br label %12

12:                                               ; preds = %8, %7, %4
  %.0 = phi i32 [ -21, %4 ], [ -22, %7 ], [ 0, %8 ]
  ret i32 %.0
}